target datalayout = "e-m:e-p270:32:32-p271:32:32-p272:64:64-i64:64-i128:128-f80:128-n8:16:32:64-S128"
target triple = "x86_64-pc-linux-gnu"

@.str.53 = private unnamed_addr constant [1 x i8] zeroinitializer, align 1
@.str.117 = private unnamed_addr constant [37 x i8] c"Secure Renegotiation IS%s supported\0A\00", align 1
@.str.118 = private unnamed_addr constant [5 x i8] c" NOT\00", align 1
@.str.119 = private unnamed_addr constant [41 x i8] c"This TLS version forbids renegotiation.\0A\00", align 1

; Function Attrs: nounwind uwtable
define void @ssl_print_secure_renegotiation_notes(ptr noundef %0, ptr noundef %1) #0 {
  %3 = alloca ptr, align 8
  %4 = alloca ptr, align 8
  store ptr %0, ptr %3, align 8, !tbaa !14
  store ptr %1, ptr %4, align 8, !tbaa !27
  %5 = load ptr, ptr %4, align 8, !tbaa !27
  %6 = call i32 @SSL_is_dtls(ptr noundef %5)
  %7 = icmp ne i32 %6, 0
  br i1 %7, label %12, label %8

8:                                                ; preds = %2
  %9 = load ptr, ptr %4, align 8, !tbaa !27
  %10 = call i32 @SSL_version(ptr noundef %9)
  %11 = icmp slt i32 %10, 772
  br i1 %11, label %12, label %19

12:                                               ; preds = %8, %2
  %13 = load ptr, ptr %3, align 8, !tbaa !14
  %14 = load ptr, ptr %4, align 8, !tbaa !27
  %15 = call i64 @SSL_ctrl(ptr noundef %14, i32 noundef 76, i64 noundef 0, ptr noundef null)
  %16 = icmp ne i64 %15, 0
  %17 = select i1 %16, ptr @.str.53, ptr @.str.118
  %18 = call i32 (ptr, ptr, ...) @BIO_printf(ptr noundef %13, ptr noundef @.str.117, ptr noundef %17)
  br label %22

19:                                               ; preds = %8
  %20 = load ptr, ptr %3, align 8, !tbaa !14
  %21 = call i32 (ptr, ptr, ...) @BIO_printf(ptr noundef %20, ptr noundef @.str.119)
  br label %22

22:                                               ; preds = %19, %12
  ret void
}