; Function Attrs: nounwind uwtable
define void @ssl_print_secure_renegotiation_notes(ptr noundef %0, ptr noundef %1) local_unnamed_addr #0 {
  %3 = tail call i32 @SSL_is_dtls(ptr noundef %1) #6
  %.not = icmp eq i32 %3, 0
  br i1 %.not, label %4, label %7

4:                                                ; preds = %2
  %5 = tail call i32 @SSL_version(ptr noundef %1) #6
  %6 = icmp slt i32 %5, 772
  br i1 %6, label %7, label %11

7:                                                ; preds = %4, %2
  %8 = tail call i64 @SSL_ctrl(ptr noundef %1, i32 noundef 76, i64 noundef 0, ptr noundef null) #6
  %.not5 = icmp eq i64 %8, 0
  %9 = select i1 %.not5, ptr @.str.118, ptr @.str.53
  %10 = tail call i32 (ptr, ptr, ...) @BIO_printf(ptr noundef %0, ptr noundef nonnull @.str.117, ptr noundef nonnull %9) #6
  br label %13

11:                                               ; preds = %4
  %12 = tail call i32 (ptr, ptr, ...) @BIO_printf(ptr noundef %0, ptr noundef nonnull @.str.119) #6
  br label %13

13:                                               ; preds = %11, %7
  ret void
}